target datalayout = "e-m:e-p270:32:32-p271:32:32-p272:64:64-i64:64-i128:128-f80:128-n8:16:32:64-S128"
target triple = "x86_64-pc-linux-gnu"

%struct.Vec_Ptr_t_ = type { i32, i32, ptr }

@.str.21 = private unnamed_addr constant [43 x i8] c"Abc_NtkDar: The network check has failed.\0A\00", align 1

; Function Attrs: nounwind uwtable
define internal void @Vec_PtrFree(ptr noundef %0) #0 {
  %2 = alloca ptr, align 8
  store ptr %0, ptr %2, align 8
  %3 = load ptr, ptr %2, align 8
  %4 = getelementptr inbounds %struct.Vec_Ptr_t_, ptr %3, i32 0, i32 2
  %5 = load ptr, ptr %4, align 8
  %6 = icmp ne ptr %5, null
  br i1 %6, label %7, label %13

7:                                                ; preds = %1
  %8 = load ptr, ptr %2, align 8
  %9 = getelementptr inbounds %struct.Vec_Ptr_t_, ptr %8, i32 0, i32 2
  %10 = load ptr, ptr %9, align 8
  call void @free(ptr noundef %10) #10
  %11 = load ptr, ptr %2, align 8
  %12 = getelementptr inbounds %struct.Vec_Ptr_t_, ptr %11, i32 0, i32 2
  store ptr null, ptr %12, align 8
  br label %14

13:                                               ; preds = %1
  br label %14

14:                                               ; preds = %13, %7
  %15 = load ptr, ptr %2, align 8
  %16 = icmp ne ptr %15, null
  br i1 %16, label %17, label %19

17:                                               ; preds = %14
  %18 = load ptr, ptr %2, align 8
  call void @free(ptr noundef %18) #10
  store ptr null, ptr %2, align 8
  br label %20

19:                                               ; preds = %14
  br label %20

20:                                               ; preds = %19, %17
  ret void
}

; Function Attrs: nounwind uwtable
define internal ptr @Vec_PtrPop(ptr noundef %0) #0 {
  %2 = alloca ptr, align 8
  store ptr %0, ptr %2, align 8
  %3 = load ptr, ptr %2, align 8
  %4 = getelementptr inbounds %struct.Vec_Ptr_t_, ptr %3, i32 0, i32 2
  %5 = load ptr, ptr %4, align 8
  %6 = load ptr, ptr %2, align 8
  %7 = getelementptr inbounds %struct.Vec_Ptr_t_, ptr %6, i32 0, i32 1
  %8 = load i32, ptr %7, align 4
  %9 = add nsw i32 %8, -1
  store i32 %9, ptr %7, align 4
  %10 = sext i32 %9 to i64
  %11 = getelementptr inbounds ptr, ptr %5, i64 %10
  %12 = load ptr, ptr %11, align 8
  ret ptr %12
}

; Function Attrs: nounwind uwtable
define ptr @Abc_NtkDarAmap(ptr noundef %0, ptr noundef %1) #0 {
  %3 = alloca ptr, align 8
  %4 = alloca ptr, align 8
  %5 = alloca ptr, align 8
  %6 = alloca ptr, align 8
  %7 = alloca ptr, align 8
  %8 = alloca ptr, align 8
  %9 = alloca ptr, align 8
  store ptr %0, ptr %4, align 8
  store ptr %1, ptr %5, align 8
  store ptr null, ptr %7, align 8
  %10 = load ptr, ptr %4, align 8
  %11 = call ptr @Abc_NtkToDarChoices(ptr noundef %10)
  store ptr %11, ptr %8, align 8
  %12 = load ptr, ptr %8, align 8
  %13 = icmp eq ptr %12, null
  br i1 %13, label %14, label %15

14:                                               ; preds = %2
  store ptr null, ptr %3, align 8
  br label %41

15:                                               ; preds = %2
  %16 = load ptr, ptr %8, align 8
  %17 = load ptr, ptr %5, align 8
  %18 = call ptr @Amap_ManTest(ptr noundef %16, ptr noundef %17)
  store ptr %18, ptr %6, align 8
  %19 = load ptr, ptr %8, align 8
  call void @Aig_ManStop(ptr noundef %19)
  %20 = load ptr, ptr %6, align 8
  %21 = icmp eq ptr %20, null
  br i1 %21, label %22, label %23

22:                                               ; preds = %15
  store ptr null, ptr %3, align 8
  br label %41

23:                                               ; preds = %15
  %24 = load ptr, ptr %6, align 8
  %25 = call ptr @Vec_PtrPop(ptr noundef %24)
  store ptr %25, ptr %9, align 8
  %26 = load ptr, ptr %4, align 8
  %27 = load ptr, ptr %6, align 8
  %28 = call ptr @Amap_ManProduceNetwork(ptr noundef %26, ptr noundef %27)
  store ptr %28, ptr %7, align 8
  %29 = load ptr, ptr %9, align 8
  call void @Aig_MmFlexStop(ptr noundef %29, i32 noundef 0)
  %30 = load ptr, ptr %6, align 8
  call void @Vec_PtrFree(ptr noundef %30)
  %31 = load ptr, ptr %7, align 8
  %32 = icmp ne ptr %31, null
  br i1 %32, label %33, label %39

33:                                               ; preds = %23
  %34 = load ptr, ptr %7, align 8
  %35 = call i32 @Abc_NtkCheck(ptr noundef %34)
  %36 = icmp ne i32 %35, 0
  br i1 %36, label %39, label %37

37:                                               ; preds = %33
  call void (i32, ptr, ...) @Abc_Print(i32 noundef 1, ptr noundef @.str.21)
  %38 = load ptr, ptr %7, align 8
  call void @Abc_NtkDelete(ptr noundef %38)
  store ptr null, ptr %3, align 8
  br label %41

39:                                               ; preds = %33, %23
  %40 = load ptr, ptr %7, align 8
  store ptr %40, ptr %3, align 8
  br label %41

41:                                               ; preds = %39, %37, %22, %14
  %42 = load ptr, ptr %3, align 8
  ret ptr %42
}