; Function Attrs: nounwind uwtable
define ptr @Abc_NtkDarAmap(ptr noundef %0, ptr noundef %1) local_unnamed_addr #1 {
  %3 = tail call ptr @Abc_NtkToDarChoices(ptr noundef %0)
  %4 = icmp eq ptr %3, null
  br i1 %4, label %23, label %5

5:                                                ; preds = %2
  %6 = tail call ptr @Amap_ManTest(ptr noundef nonnull %3, ptr noundef %1) #19
  tail call void @Aig_ManStop(ptr noundef nonnull %3) #19
  %7 = icmp eq ptr %6, null
  br i1 %7, label %23, label %8

8:                                                ; preds = %5
  %9 = getelementptr inbounds nuw i8, ptr %6, i64 8
  %10 = load ptr, ptr %9, align 8
  %11 = getelementptr inbounds nuw i8, ptr %6, i64 4
  %12 = load i32, ptr %11, align 4
  %13 = add nsw i32 %12, -1
  store i32 %13, ptr %11, align 4
  %14 = sext i32 %13 to i64
  %15 = getelementptr inbounds ptr, ptr %10, i64 %14
  %16 = load ptr, ptr %15, align 8
  %17 = tail call ptr @Amap_ManProduceNetwork(ptr noundef %0, ptr noundef nonnull %6)
  tail call void @Aig_MmFlexStop(ptr noundef %16, i32 noundef 0) #19
  %18 = load ptr, ptr %9, align 8
  %.not.i = icmp eq ptr %18, null
  br i1 %.not.i, label %Vec_PtrFree.exit, label %19

19:                                               ; preds = %8
  tail call void @free(ptr noundef nonnull %18) #19
  br label %Vec_PtrFree.exit

Vec_PtrFree.exit:                                 ; preds = %8, %19
  tail call void @free(ptr noundef nonnull %6) #19
  %.not = icmp eq ptr %17, null
  br i1 %.not, label %23, label %20

20:                                               ; preds = %Vec_PtrFree.exit
  %21 = tail call i32 @Abc_NtkCheck(ptr noundef nonnull %17) #19
  %.not19 = icmp eq i32 %21, 0
  br i1 %.not19, label %22, label %23

22:                                               ; preds = %20
  tail call void (i32, ptr, ...) @Abc_Print(i32 poison, ptr noundef nonnull @.str.21)
  tail call void @Abc_NtkDelete(ptr noundef nonnull %17) #19
  br label %23

23:                                               ; preds = %Vec_PtrFree.exit, %20, %5, %2, %22
  %.0 = phi ptr [ null, %22 ], [ null, %2 ], [ null, %5 ], [ %17, %20 ], [ null, %Vec_PtrFree.exit ]
  ret ptr %.0
}